	.file	"utils.c"
	.text
	.globl	ft_isnum
	.type	ft_isnum, @function
ft_isnum:
.LFB6:
	.cfi_startproc
	endbr64
	pushq	%rbp
	.cfi_def_cfa_offset 16
	.cfi_offset 6, -16
	movq	%rsp, %rbp
	.cfi_def_cfa_register 6
	movl	%edi, %eax
	movb	%al, -4(%rbp)
	cmpb	$47, -4(%rbp)
	jle	.L2
	cmpb	$57, -4(%rbp)
	jg	.L2
	movl	$1, %eax
	jmp	.L3
.L2:
	movl	$0, %eax
.L3:
	popq	%rbp
	.cfi_def_cfa 7, 8
	ret
	.cfi_endproc
.LFE6:
	.size	ft_isnum, .-ft_isnum
	.globl	ft_ispace
	.type	ft_ispace, @function
ft_ispace:
.LFB7:
	.cfi_startproc
	endbr64
	pushq	%rbp
	.cfi_def_cfa_offset 16
	.cfi_offset 6, -16
	movq	%rsp, %rbp
	.cfi_def_cfa_register 6
	movl	%edi, %eax
	movb	%al, -4(%rbp)
	cmpb	$32, -4(%rbp)
	je	.L5
	cmpb	$10, -4(%rbp)
	je	.L5
	cmpb	$9, -4(%rbp)
	jne	.L6
.L5:
	movl	$1, %eax
	jmp	.L7
.L6:
	movl	$0, %eax
.L7:
	popq	%rbp
	.cfi_def_cfa 7, 8
	ret
	.cfi_endproc
.LFE7:
	.size	ft_ispace, .-ft_ispace
	.globl	ft_strlen
	.type	ft_strlen, @function
ft_strlen:
.LFB8:
	.cfi_startproc
	endbr64
	pushq	%rbp
	.cfi_def_cfa_offset 16
	.cfi_offset 6, -16
	movq	%rsp, %rbp
	.cfi_def_cfa_register 6
	movq	%rdi, -24(%rbp)
	cmpq	$0, -24(%rbp)
	jne	.L9
	movl	$0, %eax
	jmp	.L10
.L9:
	movq	$0, -8(%rbp)
	jmp	.L11
.L12:
	addq	$1, -8(%rbp)
.L11:
	movq	-24(%rbp), %rdx
	movq	-8(%rbp), %rax
	addq	%rdx, %rax
	movzbl	(%rax), %eax
	testb	%al, %al
	jne	.L12
	movq	-8(%rbp), %rax
.L10:
	popq	%rbp
	.cfi_def_cfa 7, 8
	ret
	.cfi_endproc
.LFE8:
	.size	ft_strlen, .-ft_strlen
	.section	.rodata
	.align 8
.LC0:
	.string	"philo: Invalid argument(s), enter valid arguments between 1 and 2 147 483 647ms\n"
	.text
	.globl	ft_atol
	.type	ft_atol, @function
ft_atol:
.LFB9:
	.cfi_startproc
	endbr64
	pushq	%rbp
	.cfi_def_cfa_offset 16
	.cfi_offset 6, -16
	movq	%rsp, %rbp
	.cfi_def_cfa_register 6
	subq	$32, %rsp
	movq	%rdi, -24(%rbp)
	movl	$0, -16(%rbp)
	movl	$1, -12(%rbp)
	movq	$0, -8(%rbp)
	jmp	.L14
.L15:
	addl	$1, -16(%rbp)
.L14:
	movl	-16(%rbp), %eax
	movslq	%eax, %rdx
	movq	-24(%rbp), %rax
	addq	%rdx, %rax
	movzbl	(%rax), %eax
	cmpb	$32, %al
	je	.L15
	movl	-16(%rbp), %eax
	movslq	%eax, %rdx
	movq	-24(%rbp), %rax
	addq	%rdx, %rax
	movzbl	(%rax), %eax
	cmpb	$8, %al
	jle	.L16
	movl	-16(%rbp), %eax
	movslq	%eax, %rdx
	movq	-24(%rbp), %rax
	addq	%rdx, %rax
	movzbl	(%rax), %eax
	cmpb	$13, %al
	jle	.L15
.L16:
	movl	-16(%rbp), %eax
	movslq	%eax, %rdx
	movq	-24(%rbp), %rax
	addq	%rdx, %rax
	movzbl	(%rax), %eax
	cmpb	$43, %al
	je	.L17
	movl	-16(%rbp), %eax
	movslq	%eax, %rdx
	movq	-24(%rbp), %rax
	addq	%rdx, %rax
	movzbl	(%rax), %eax
	cmpb	$45, %al
	jne	.L20
.L17:
	movl	-16(%rbp), %eax
	movslq	%eax, %rdx
	movq	-24(%rbp), %rax
	addq	%rdx, %rax
	movzbl	(%rax), %eax
	cmpb	$45, %al
	jne	.L19
	movl	$-1, -12(%rbp)
.L19:
	addl	$1, -16(%rbp)
	jmp	.L20
.L22:
	movq	-8(%rbp), %rdx
	movq	%rdx, %rax
	salq	$2, %rax
	addq	%rdx, %rax
	addq	%rax, %rax
	movq	%rax, %rcx
	movl	-16(%rbp), %eax
	movslq	%eax, %rdx
	movq	-24(%rbp), %rax
	addq	%rdx, %rax
	movzbl	(%rax), %eax
	movsbq	%al, %rax
	addq	%rcx, %rax
	subq	$48, %rax
	movq	%rax, -8(%rbp)
	addl	$1, -16(%rbp)
	movl	$2147483648, %eax
	cmpq	%rax, -8(%rbp)
	jl	.L20
	leaq	.LC0(%rip), %rdi
	call	ft_error@PLT
.L20:
	movl	-16(%rbp), %eax
	movslq	%eax, %rdx
	movq	-24(%rbp), %rax
	addq	%rdx, %rax
	movzbl	(%rax), %eax
	cmpb	$47, %al
	jle	.L21
	movl	-16(%rbp), %eax
	movslq	%eax, %rdx
	movq	-24(%rbp), %rax
	addq	%rdx, %rax
	movzbl	(%rax), %eax
	cmpb	$57, %al
	jle	.L22
.L21:
	movl	-12(%rbp), %eax
	cltq
	imulq	-8(%rbp), %rax
	leave
	.cfi_def_cfa 7, 8
	ret
	.cfi_endproc
.LFE9:
	.size	ft_atol, .-ft_atol
	.ident	"GCC: (Ubuntu 10.5.0-1ubuntu1~22.04) 10.5.0"
	.section	.note.GNU-stack,"",@progbits
	.section	.note.gnu.property,"a"
	.align 8
	.long	 1f - 0f
	.long	 4f - 1f
	.long	 5
0:
	.string	 "GNU"
1:
	.align 8
	.long	 0xc0000002
	.long	 3f - 2f
2:
	.long	 0x3
3:
	.align 8
4:
